target datalayout = "e-m:e-p270:32:32-p271:32:32-p272:64:64-i64:64-i128:128-f80:128-n8:16:32:64-S128"
target triple = "x86_64-pc-linux-gnu"

%struct._zval_struct = type { %union._zend_value, %union.anon.3, %union.anon.6 }
%union._zend_value = type { i64 }
%union.anon.3 = type { i32 }
%union.anon.6 = type { i32 }
%struct._php_stream_context = type { ptr, %struct._zval_struct, ptr }

; Function Attrs: nounwind uwtable
define ptr @php_stream_context_alloc() #0 {
  %1 = alloca ptr, align 8
  %2 = alloca ptr, align 8
  %3 = alloca ptr, align 8
  %4 = call noalias ptr @_ecalloc(i64 noundef 1, i64 noundef 32) #20
  store ptr %4, ptr %1, align 8
  br label %5

5:                                                ; preds = %0
  %6 = call ptr @_zend_new_array_0()
  store ptr %6, ptr %2, align 8
  %7 = load ptr, ptr %1, align 8
  %8 = getelementptr inbounds %struct._php_stream_context, ptr %7, i32 0, i32 1
  store ptr %8, ptr %3, align 8
  %9 = load ptr, ptr %2, align 8
  %10 = load ptr, ptr %3, align 8
  %11 = getelementptr inbounds %struct._zval_struct, ptr %10, i32 0, i32 0
  store ptr %9, ptr %11, align 8
  %12 = load ptr, ptr %3, align 8
  %13 = getelementptr inbounds %struct._zval_struct, ptr %12, i32 0, i32 1
  store i32 775, ptr %13, align 8
  br label %14

14:                                               ; preds = %5
  %15 = load ptr, ptr %1, align 8
  %16 = call i32 @php_le_stream_context()
  %17 = call ptr @zend_register_resource(ptr noundef %15, i32 noundef %16)
  %18 = load ptr, ptr %1, align 8
  %19 = getelementptr inbounds %struct._php_stream_context, ptr %18, i32 0, i32 2
  store ptr %17, ptr %19, align 8
  %20 = load ptr, ptr %1, align 8
  ret ptr %20
}