; Function Attrs: nounwind uwtable
define noundef ptr @php_stream_context_alloc() local_unnamed_addr #2 {
  %1 = tail call noalias dereferenceable_or_null(32) ptr @_ecalloc(i64 noundef 1, i64 noundef 32) #32
  %2 = tail call ptr @_zend_new_array_0() #27
  %3 = getelementptr inbounds i8, ptr %1, i64 8
  store ptr %2, ptr %3, align 8
  %4 = getelementptr inbounds i8, ptr %1, i64 16
  store i32 775, ptr %4, align 8
  %5 = tail call i32 @php_le_stream_context() #27
  %6 = tail call ptr @zend_register_resource(ptr noundef %1, i32 noundef %5) #27
  %7 = getelementptr inbounds i8, ptr %1, i64 24
  store ptr %6, ptr %7, align 8
  ret ptr %1
}